; Function Attrs: mustprogress uwtable
define void @grpc_tls_credentials_options_watch_root_certs(ptr noundef writeonly %0) local_unnamed_addr #9 personality ptr @__gxx_personality_v0 {
  %2 = alloca %"class.absl::lts_20240722::log_internal::LogMessageFatal", align 8
  %.not.i = icmp eq ptr %0, null
  br i1 %.not.i, label %5, label %3, !prof !25

3:                                                ; preds = %1
  %4 = getelementptr inbounds nuw i8, ptr %0, i64 56
  store i8 1, ptr %4, align 8, !tbaa !50
  ret void

5:                                                ; preds = %1
  %6 = tail call noundef nonnull ptr @_ZN4absl12lts_2024072212log_internal17MakeCheckOpStringIPKvS4_EEPNSt7__cxx1112basic_stringIcSt11char_traitsIcESaIcEEET_T0_PKc(ptr noundef null, ptr noundef null, ptr noundef nonnull @.str)
  call void @llvm.lifetime.start.p0(i64 16, ptr nonnull %2) #27
  %7 = load ptr, ptr %6, align 8, !tbaa !60
  %8 = getelementptr inbounds nuw i8, ptr %6, i64 8
  %9 = load i64, ptr %8, align 8, !tbaa !61
  call void @_ZN4absl12lts_2024072212log_internal15LogMessageFatalC1EPKciSt17basic_string_viewIcSt11char_traitsIcEE(ptr noundef nonnull align 8 dereferenceable(16) %2, ptr noundef nonnull @.str.1, i32 noundef 76, i64 %9, ptr %7) #30
  call void @_ZN4absl12lts_2024072212log_internal15LogMessageFatalD1Ev(ptr noundef nonnull align 8 dereferenceable(16) %2) #29
  unreachable
}